; Function Attrs: nounwind uwtable
define hidden void @os_getCmdlineAndUserInfo(ptr noundef %0, ptr noundef %1, i32 noundef %2) local_unnamed_addr #0 {
  %4 = alloca [32 x i8], align 16
  %5 = alloca %struct.stat, align 8
  %6 = call i32 (ptr, i64, ptr, ...) @snprintf(ptr noundef nonnull dereferenceable(1) %4, i64 noundef 32, ptr noundef nonnull @.str.3, i32 noundef %2) #13
  %7 = call i32 @stat64(ptr noundef nonnull %4, ptr noundef nonnull %5) #13
  %8 = icmp eq i32 %7, 0
  br i1 %8, label %9, label %16

9:                                                ; preds = %3
  %10 = getelementptr inbounds i8, ptr %5, i64 28
  %11 = load i32, ptr %10, align 4
  tail call void @unix_getUserInfo(ptr noundef %0, ptr noundef %1, i32 noundef %11) #13
  %12 = load ptr, ptr %0, align 8
  %13 = getelementptr inbounds i8, ptr %12, i64 1824
  %14 = load ptr, ptr %13, align 8
  %15 = tail call zeroext i8 %14(ptr noundef nonnull %0) #13
  %.not = icmp eq i8 %15, 0
  br i1 %.not, label %16, label %102

16:                                               ; preds = %9, %3
  %17 = call i64 @strnlen(ptr noundef nonnull dereferenceable(1) %4, i64 noundef 32) #14
  %18 = sub i64 31, %17
  %19 = call ptr @strncat(ptr noundef nonnull dereferenceable(1) %4, ptr noundef nonnull @.str.4, i64 noundef %18) #13
  %20 = call i32 (ptr, i32, ...) @open64(ptr noundef nonnull %4, i32 noundef 0) #13
  %21 = icmp slt i32 %20, 0
  br i1 %21, label %102, label %22

22:                                               ; preds = %16
  %23 = load i32, ptr @pageSize, align 4
  %24 = call i32 @llvm.smax.i32(i32 %23, i32 4096)
  %25 = add nuw nsw i32 %24, 1
  %26 = zext nneg i32 %25 to i64
  %27 = call noalias ptr @malloc(i64 noundef %26) #15
  %28 = icmp eq ptr %27, null
  br i1 %28, label %.thread93, label %29

29:                                               ; preds = %22
  %30 = call i32 (ptr, i64, ptr, ...) @snprintf(ptr noundef nonnull dereferenceable(1) %4, i64 noundef 32, ptr noundef nonnull @.str.5, i32 noundef %2) #13
  %31 = call i64 @readlink(ptr noundef nonnull %4, ptr noundef nonnull %27, i64 noundef 4096) #13
  %32 = trunc i64 %31 to i32
  %33 = icmp sgt i32 %32, 0
  br i1 %33, label %34, label %41

34:                                               ; preds = %29
  %35 = and i64 %31, 2147483647
  %36 = getelementptr inbounds i8, ptr %27, i64 %35
  store i8 0, ptr %36, align 1
  %37 = call ptr @JNU_NewStringPlatform(ptr noundef %0, ptr noundef nonnull %27) #13
  %38 = load ptr, ptr %0, align 8
  %39 = getelementptr inbounds i8, ptr %38, i64 136
  %40 = load ptr, ptr %39, align 8
  call void %40(ptr noundef nonnull %0) #13
  br label %41

41:                                               ; preds = %34, %29
  %.071 = phi ptr [ %37, %34 ], [ null, %29 ]
  %42 = load i32, ptr @pageSize, align 4
  %43 = sext i32 %42 to i64
  %44 = call i64 @read(i32 noundef %20, ptr noundef nonnull %27, i64 noundef %43) #13
  %45 = trunc i64 %44 to i32
  %46 = icmp sgt i32 %45, 0
  br i1 %46, label %.lr.ph, label %._crit_edge

.lr.ph:                                           ; preds = %41, %.lr.ph
  %47 = phi i32 [ %56, %.lr.ph ], [ %45, %41 ]
  %48 = phi i64 [ %55, %.lr.ph ], [ %44, %41 ]
  %.098 = phi ptr [ %51, %.lr.ph ], [ %27, %41 ]
  %.06797 = phi i32 [ %49, %.lr.ph ], [ 0, %41 ]
  %49 = add nuw nsw i32 %47, %.06797
  %50 = and i64 %48, 2147483647
  %51 = getelementptr inbounds i8, ptr %.098, i64 %50
  %52 = load i32, ptr @pageSize, align 4
  %53 = sub nsw i32 %52, %49
  %54 = sext i32 %53 to i64
  %55 = call i64 @read(i32 noundef %20, ptr noundef %51, i64 noundef %54) #13
  %56 = trunc i64 %55 to i32
  %57 = icmp sgt i32 %56, 0
  br i1 %57, label %.lr.ph, label %._crit_edge, !llvm.loop !8

._crit_edge:                                      ; preds = %.lr.ph, %41
  %.067.lcssa = phi i32 [ 0, %41 ], [ %49, %.lr.ph ]
  %.lcssa = phi i32 [ %45, %41 ], [ %56, %.lr.ph ]
  %58 = icmp slt i32 %.lcssa, 0
  br i1 %58, label %.thread93.sink.split, label %59

59:                                               ; preds = %._crit_edge
  %60 = zext i32 %.067.lcssa to i64
  %61 = getelementptr inbounds i8, ptr %27, i64 %60
  store i8 0, ptr %61, align 1
  %62 = load i32, ptr @pageSize, align 4
  %63 = icmp eq i32 %.067.lcssa, %62
  br i1 %63, label %64, label %69

64:                                               ; preds = %59
  %65 = sext i32 %.067.lcssa to i64
  %66 = getelementptr i8, ptr %27, i64 %65
  %67 = getelementptr i8, ptr %66, i64 -1
  %68 = load i8, ptr %67, align 1
  %.not85 = icmp eq i8 %68, 0
  br i1 %.not85, label %69, label %70

69:                                               ; preds = %64, %59
  br label %70

70:                                               ; preds = %64, %69
  %71 = phi i1 [ false, %69 ], [ true, %64 ]
  %.not87 = phi i1 [ true, %69 ], [ false, %64 ]
  %72 = icmp sgt i32 %.067.lcssa, 0
  %73 = icmp eq ptr %.071, null
  %or.cond = or i1 %73, %71
  %or.cond90 = select i1 %72, i1 %or.cond, i1 false
  br i1 %or.cond90, label %74, label %.loopexit96

74:                                               ; preds = %70
  %75 = add nsw i32 %62, 1
  %76 = sext i32 %75 to i64
  %77 = call noalias ptr @malloc(i64 noundef %76) #15
  %.not86 = icmp eq ptr %77, null
  br i1 %.not86, label %.loopexit96, label %.lr.ph102.preheader

.lr.ph102.preheader:                              ; preds = %74
  %78 = add nuw nsw i32 %.067.lcssa, 1
  %79 = zext nneg i32 %78 to i64
  call void @llvm.memcpy.p0.p0.i64(ptr noundef nonnull align 1 dereferenceable(1) %77, ptr noundef nonnull align 1 dereferenceable(1) %27, i64 %79, i1 false)
  br label %.lr.ph102

.lr.ph102:                                        ; preds = %.lr.ph102.preheader, %84
  %indvars.iv = phi i64 [ 0, %.lr.ph102.preheader ], [ %indvars.iv.next, %84 ]
  %80 = getelementptr inbounds i8, ptr %77, i64 %indvars.iv
  %81 = load i8, ptr %80, align 1
  %82 = icmp eq i8 %81, 0
  br i1 %82, label %83, label %84

83:                                               ; preds = %.lr.ph102
  store i8 32, ptr %80, align 1
  br label %84

84:                                               ; preds = %.lr.ph102, %83
  %indvars.iv.next = add nuw nsw i64 %indvars.iv, 1
  %exitcond.not = icmp eq i64 %indvars.iv.next, %60
  br i1 %exitcond.not, label %.loopexit96, label %.lr.ph102, !llvm.loop !9

.loopexit96:                                      ; preds = %84, %74, %70
  %.072 = phi ptr [ null, %74 ], [ null, %70 ], [ %77, %84 ]
  br i1 %.not87, label %.preheader, label %.loopexit

.preheader:                                       ; preds = %.loopexit96
  %85 = load i8, ptr %27, align 1
  %86 = icmp ne i8 %85, 0
  %87 = icmp ne i32 %.067.lcssa, 0
  %88 = and i1 %87, %86
  br i1 %88, label %.lr.ph105, label %.loopexit

.lr.ph105:                                        ; preds = %.preheader
  %89 = ptrtoint ptr %61 to i64
  br label %90

90:                                               ; preds = %.lr.ph105, %90
  %.1104 = phi ptr [ %27, %.lr.ph105 ], [ %95, %90 ]
  %.170103 = phi i32 [ 0, %.lr.ph105 ], [ %96, %90 ]
  %91 = ptrtoint ptr %.1104 to i64
  %92 = sub i64 %89, %91
  %93 = call i64 @strnlen(ptr noundef nonnull %.1104, i64 noundef %92) #14
  %94 = add i64 %93, 1
  %95 = getelementptr inbounds i8, ptr %.1104, i64 %94
  %96 = add nuw nsw i32 %.170103, 1
  %97 = load i8, ptr %95, align 1
  %98 = icmp ne i8 %97, 0
  %99 = icmp ult ptr %95, %61
  %100 = and i1 %99, %98
  br i1 %100, label %90, label %.loopexit, !llvm.loop !10

.loopexit:                                        ; preds = %90, %.loopexit96, %.preheader
  %.074 = phi ptr [ null, %.loopexit96 ], [ %61, %.preheader ], [ %61, %90 ]
  %.2 = phi i32 [ 0, %.loopexit96 ], [ 0, %.preheader ], [ %96, %90 ]
  call void @unix_fillArgArray(ptr noundef %0, ptr noundef %1, i32 noundef %.2, ptr noundef nonnull %27, ptr noundef %.074, ptr noundef %.071, ptr noundef %.072) #13
  call void @free(ptr noundef nonnull %27) #13
  %.not89 = icmp eq ptr %.072, null
  br i1 %.not89, label %.thread93, label %.thread93.sink.split

.thread93.sink.split:                             ; preds = %.loopexit, %._crit_edge
  %.sink = phi ptr [ %27, %._crit_edge ], [ %.072, %.loopexit ]
  call void @free(ptr noundef nonnull %.sink) #13
  br label %.thread93

.thread93:                                        ; preds = %.thread93.sink.split, %22, %.loopexit
  %101 = call i32 @close(i32 noundef %20) #13
  br label %102

102:                                              ; preds = %16, %9, %.thread93
  ret void
}